Certificate:
    Data:
        Version: 3 (0x2)
        Serial Number: 1490383900488911 (0x54b7f0af7b4cf)
    Signature Algorithm: sha256WithRSAEncryption
        Issuer: C=IL, O=StartCom Ltd., OU=Secure Digital Certificate Signing, CN=StartCom Class 1 Primary Intermediate Server CA
        Validity
            Not Before: Mar  2 01:55:48 2015 GMT
            Not After : Mar  1 10:24:05 2016 GMT
        Subject: C=US, CN=www.dnscurve.io/emailAddress=postmaster@dnscurve.io
        Subject Public Key Info:
            Public Key Algorithm: rsaEncryption
                Public-Key: (3072 bit)
                Modulus:
                    00:ea:01:36:33:f2:56:f6:6c:1f:e7:1a:be:73:87:
                    6f:f1:fa:d2:df:27:cd:eb:d1:78:f4:43:8f:aa:be:
                    42:cd:c0:f9:a4:cf:8c:5e:ee:45:6d:47:b4:b4:ce:
                    55:c3:87:4b:fd:a2:13:03:68:f5:76:ce:0f:5b:e1:
                    70:5d:ad:15:3e:d8:8c:3a:27:f9:74:cd:7c:dd:a2:
                    17:d6:73:57:a1:fe:11:dd:fb:0a:dc:f1:41:17:75:
                    f2:11:e6:63:00:47:86:af:2e:98:84:8b:6b:5c:ea:
                    59:79:28:c8:90:03:d7:23:e4:e1:ce:f6:5e:07:11:
                    1b:5e:69:18:22:b6:7e:aa:c2:61:56:a8:07:89:22:
                    55:5f:9d:db:00:cd:ea:37:9a:7e:6e:89:71:44:b0:
                    7b:5e:7a:14:ca:62:ad:f6:b2:40:59:f5:91:a9:db:
                    4a:cf:ac:70:2d:87:5a:75:1e:ba:0a:c0:f2:5d:06:
                    bb:33:29:3f:f3:45:0d:ad:c3:8e:a3:28:f5:f6:91:
                    79:c1:d7:d4:c3:b9:87:ec:90:6d:ac:57:e1:45:bf:
                    30:ca:d7:8f:1d:dd:74:c3:c7:08:80:08:bc:19:c1:
                    9e:41:15:82:4d:f5:e5:62:92:85:7f:52:3e:ae:1a:
                    52:f0:14:72:b4:89:64:81:e6:b8:e0:c2:3e:aa:11:
                    45:f9:54:0e:85:82:36:06:13:8c:64:0f:ba:35:0c:
                    26:61:74:de:99:d5:92:16:2d:f0:10:91:07:6f:76:
                    7d:e0:69:54:35:3e:e7:a6:11:e6:f8:5a:6b:d9:83:
                    8f:be:9f:17:74:ed:01:f3:41:76:c8:e9:92:8e:1a:
                    26:20:59:e7:80:e5:13:cf:f2:11:0b:50:1a:df:6a:
                    dc:b2:ab:4c:59:0b:8c:87:75:db:06:1b:da:fb:57:
                    27:3d:8e:7f:3a:42:05:59:11:b0:72:af:f5:ca:de:
                    ae:da:5a:57:a3:be:bb:09:98:f9:63:04:9f:20:83:
                    9f:fe:c7:f0:08:a5:1d:50:85:93
                Exponent: 65537 (0x10001)
        X509v3 extensions:
            X509v3 Basic Constraints: 
                CA:FALSE
            X509v3 Key Usage: 
                Digital Signature, Key Encipherment, Key Agreement
            X509v3 Extended Key Usage: 
                TLS Web Server Authentication
            X509v3 Subject Key Identifier: 
                B9:77:37:6E:B8:DD:76:2C:56:C0:04:4A:6D:3D:E1:B3:6E:7E:F4:6C
            X509v3 Authority Key Identifier: 
                keyid:EB:42:34:D0:98:B0:AB:9F:F4:1B:6B:08:F7:CC:64:2E:EF:0E:2C:45

            X509v3 Subject Alternative Name: 
                DNS:www.dnscurve.io, DNS:dnscurve.io
            X509v3 Certificate Policies: 
                Policy: 2.23.140.1.2.1
                Policy: 1.3.6.1.4.1.23223.1.2.3
                  CPS: http://www.startssl.com/policy.pdf
                  User Notice:
                    Organization: StartCom Certification Authority
                    Number: 1
                    Explicit Text: This certificate was issued according to the Class 1 Validation requirements of the StartCom CA policy, reliance only for the intended purpose in compliance of the relying party obligations.

            X509v3 CRL Distribution Points: 

                Full Name:
                  URI:http://crl.startssl.com/crt1-crl.crl

            Authority Information Access: 
                OCSP - URI:http://ocsp.startssl.com/sub/class1/server/ca
                CA Issuers - URI:http://aia.startssl.com/certs/sub.class1.server.ca.crt

            X509v3 Issuer Alternative Name: 
                URI:http://www.startssl.com/
    Signature Algorithm: sha256WithRSAEncryption
         60:db:b5:5e:6d:56:d2:95:b9:6a:5b:95:7c:15:cb:78:d0:1b:
         e4:bc:ab:da:59:1f:d0:c1:53:0e:1d:fe:ca:cb:ca:20:92:33:
         3f:0d:62:12:54:df:e7:d3:64:98:4a:4b:d6:35:88:79:6e:6f:
         d1:86:b5:98:03:89:50:ad:2b:58:3d:11:3b:fd:f5:79:04:b9:
         84:c0:b8:80:41:7a:e4:b8:5d:53:e0:9d:6c:82:80:3d:4d:1f:
         4d:3a:91:04:22:ba:ac:cc:cc:3d:c0:a7:d1:3a:54:eb:f5:0b:
         52:6c:54:28:76:f3:43:74:eb:71:ed:2a:6f:d8:fe:d7:e7:ea:
         ae:9e:63:a9:cd:6f:78:be:7a:03:cc:ff:ac:1a:e2:06:4f:3d:
         ca:fb:30:37:dd:a1:63:e3:9c:b7:c7:9e:af:ed:a0:9f:e1:cf:
         cf:ab:ff:be:bd:0e:7a:b8:61:7e:fb:6b:9a:4d:ce:55:3a:d0:
         73:b4:b9:ba:81:9b:a5:c8:f8:17:3e:6f:fb:80:c7:f6:5a:6c:
         36:b5:39:f8:e6:b6:19:9d:c5:62:d0:f0:6d:e3:b9:f0:37:fb:
         49:d7:ec:4a:9f:be:f6:1b:a1:31:9d:6a:6e:1f:cd:68:46:29:
         38:f8:6a:23:ae:5f:d0:8d:da:d4:c0:16:55:3c:3e:dc:e5:65:
         f3:19:22:3c
         


-----BEGIN CERTIFICATE-----
MIIGvzCCBaegAwIBAgIHBUt/Cve0zzANBgkqhkiG9w0BAQsFADCBjDELMAkGA1UE
BhMCSUwxFjAUBgNVBAoTDVN0YXJ0Q29tIEx0ZC4xKzApBgNVBAsTIlNlY3VyZSBE
aWdpdGFsIENlcnRpZmljYXRlIFNpZ25pbmcxODA2BgNVBAMTL1N0YXJ0Q29tIENs
YXNzIDEgUHJpbWFyeSBJbnRlcm1lZGlhdGUgU2VydmVyIENBMB4XDTE1MDMwMjAx
NTU0OFoXDTE2MDMwMTEwMjQwNVowTjELMAkGA1UEBhMCVVMxGDAWBgNVBAMTD3d3
dy5kbnNjdXJ2ZS5pbzElMCMGCSqGSIb3DQEJARYWcG9zdG1hc3RlckBkbnNjdXJ2
ZS5pbzCCAaIwDQYJKoZIhvcNAQEBBQADggGPADCCAYoCggGBAOoBNjPyVvZsH+ca
vnOHb/H60t8nzevRePRDj6q+Qs3A+aTPjF7uRW1HtLTOVcOHS/2iEwNo9XbOD1vh
cF2tFT7YjDon+XTNfN2iF9ZzV6H+Ed37CtzxQRd18hHmYwBHhq8umISLa1zqWXko
yJAD1yPk4c72XgcRG15pGCK2fqrCYVaoB4kiVV+d2wDN6jeafm6JcUSwe156FMpi
rfayQFn1kanbSs+scC2HWnUeugrA8l0GuzMpP/NFDa3DjqMo9faRecHX1MO5h+yQ
baxX4UW/MMrXjx3ddMPHCIAIvBnBnkEVgk315WKShX9SPq4aUvAUcrSJZIHmuODC
PqoRRflUDoWCNgYTjGQPujUMJmF03pnVkhYt8BCRB292feBpVDU+56YR5vhaa9mD
j76fF3TtAfNBdsjpko4aJiBZ54DlE8/yEQtQGt9q3LKrTFkLjId12wYb2vtXJz2O
fzpCBVkRsHKv9crertpaV6O+uwmY+WMEnyCDn/7H8AilHVCFkwIDAQABo4IC4TCC
At0wCQYDVR0TBAIwADALBgNVHQ8EBAMCA6gwEwYDVR0lBAwwCgYIKwYBBQUHAwEw
HQYDVR0OBBYEFLl3N2643XYsVsAESm094bNufvRsMB8GA1UdIwQYMBaAFOtCNNCY
sKuf9BtrCPfMZC7vDixFMCcGA1UdEQQgMB6CD3d3dy5kbnNjdXJ2ZS5pb4ILZG5z
Y3VydmUuaW8wggFWBgNVHSAEggFNMIIBSTAIBgZngQwBAgEwggE7BgsrBgEEAYG1
NwECAzCCASowLgYIKwYBBQUHAgEWImh0dHA6Ly93d3cuc3RhcnRzc2wuY29tL3Bv
bGljeS5wZGYwgfcGCCsGAQUFBwICMIHqMCcWIFN0YXJ0Q29tIENlcnRpZmljYXRp
b24gQXV0aG9yaXR5MAMCAQEagb5UaGlzIGNlcnRpZmljYXRlIHdhcyBpc3N1ZWQg
YWNjb3JkaW5nIHRvIHRoZSBDbGFzcyAxIFZhbGlkYXRpb24gcmVxdWlyZW1lbnRz
IG9mIHRoZSBTdGFydENvbSBDQSBwb2xpY3ksIHJlbGlhbmNlIG9ubHkgZm9yIHRo
ZSBpbnRlbmRlZCBwdXJwb3NlIGluIGNvbXBsaWFuY2Ugb2YgdGhlIHJlbHlpbmcg
cGFydHkgb2JsaWdhdGlvbnMuMDUGA1UdHwQuMCwwKqAooCaGJGh0dHA6Ly9jcmwu
c3RhcnRzc2wuY29tL2NydDEtY3JsLmNybDCBjgYIKwYBBQUHAQEEgYEwfzA5Bggr
BgEFBQcwAYYtaHR0cDovL29jc3Auc3RhcnRzc2wuY29tL3N1Yi9jbGFzczEvc2Vy
dmVyL2NhMEIGCCsGAQUFBzAChjZodHRwOi8vYWlhLnN0YXJ0c3NsLmNvbS9jZXJ0
cy9zdWIuY2xhc3MxLnNlcnZlci5jYS5jcnQwIwYDVR0SBBwwGoYYaHR0cDovL3d3
dy5zdGFydHNzbC5jb20vMA0GCSqGSIb3DQEBCwUAA4IBAQBg27VebVbSlblqW5V8
Fct40BvkvKvaWR/QwVMOHf7Ky8ogkjM/DWISVN/n02SYSkvWNYh5bm/RhrWYA4lQ
rStYPRE7/fV5BLmEwLiAQXrkuF1T4J1sgoA9TR9NOpEEIrqszMw9wKfROlTr9QtS
bFQodvNDdOtx7Spv2P7X5+qunmOpzW94vnoDzP+sGuIGTz3K+zA33aFj45y3x56v
7aCf4c/Pq/++vQ56uGF++2uaTc5VOtBztLm6gZulyPgXPm/7gMf2Wmw2tTn45rYZ
ncVi0PBt47nwN/tJ1+xKn772G6ExnWpuH81oRik4+Gojrl/QjdrUwBZVPD7c5WXz
GSI8
-----END CERTIFICATE-----
